target datalayout = "e-m:e-p270:32:32-p271:32:32-p272:64:64-i64:64-i128:128-f80:128-n8:16:32:64-S128"
target triple = "x86_64-pc-linux-gnu"

%struct.If_Obj_t_ = type { i32, i32, i32, i32, i32, i32, ptr, ptr, ptr, float, float, float, %union.anon.1, ptr, %struct.If_Cut_t_ }
%union.anon.1 = type { ptr }
%struct.If_Cut_t_ = type <{ float, float, float, float, i32, i32, i32, i48, [0 x i32] }>
%struct.Vec_Ptr_t_ = type { i32, i32, ptr }

; Function Attrs: nounwind uwtable
define internal void @Vec_PtrGrow(ptr noundef %0, i32 noundef %1) #0 {
  %3 = alloca ptr, align 8
  %4 = alloca i32, align 4
  store ptr %0, ptr %3, align 8
  store i32 %1, ptr %4, align 4
  %5 = load ptr, ptr %3, align 8
  %6 = getelementptr inbounds %struct.Vec_Ptr_t_, ptr %5, i32 0, i32 0
  %7 = load i32, ptr %6, align 8
  %8 = load i32, ptr %4, align 4
  %9 = icmp sge i32 %7, %8
  br i1 %9, label %10, label %11

10:                                               ; preds = %2
  br label %36

11:                                               ; preds = %2
  %12 = load ptr, ptr %3, align 8
  %13 = getelementptr inbounds %struct.Vec_Ptr_t_, ptr %12, i32 0, i32 2
  %14 = load ptr, ptr %13, align 8
  %15 = icmp ne ptr %14, null
  br i1 %15, label %16, label %24

16:                                               ; preds = %11
  %17 = load ptr, ptr %3, align 8
  %18 = getelementptr inbounds %struct.Vec_Ptr_t_, ptr %17, i32 0, i32 2
  %19 = load ptr, ptr %18, align 8
  %20 = load i32, ptr %4, align 4
  %21 = sext i32 %20 to i64
  %22 = mul i64 8, %21
  %23 = call ptr @realloc(ptr noundef %19, i64 noundef %22) #12
  br label %29

24:                                               ; preds = %11
  %25 = load i32, ptr %4, align 4
  %26 = sext i32 %25 to i64
  %27 = mul i64 8, %26
  %28 = call noalias ptr @malloc(i64 noundef %27) #11
  br label %29

29:                                               ; preds = %24, %16
  %30 = phi ptr [ %23, %16 ], [ %28, %24 ]
  %31 = load ptr, ptr %3, align 8
  %32 = getelementptr inbounds %struct.Vec_Ptr_t_, ptr %31, i32 0, i32 2
  store ptr %30, ptr %32, align 8
  %33 = load i32, ptr %4, align 4
  %34 = load ptr, ptr %3, align 8
  %35 = getelementptr inbounds %struct.Vec_Ptr_t_, ptr %34, i32 0, i32 0
  store i32 %33, ptr %35, align 8
  br label %36

36:                                               ; preds = %29, %10
  ret void
}

; Function Attrs: nounwind uwtable
define internal ptr @Hop_Not(ptr noundef %0) #0 {
  %2 = alloca ptr, align 8
  store ptr %0, ptr %2, align 8
  %3 = load ptr, ptr %2, align 8
  %4 = ptrtoint ptr %3 to i64
  %5 = xor i64 %4, 1
  %6 = inttoptr i64 %5 to ptr
  ret ptr %6
}

; Function Attrs: nounwind uwtable
define internal ptr @Hop_NotCond(ptr noundef %0, i32 noundef %1) #0 {
  %3 = alloca ptr, align 8
  %4 = alloca i32, align 4
  store ptr %0, ptr %3, align 8
  store i32 %1, ptr %4, align 4
  %5 = load ptr, ptr %3, align 8
  %6 = ptrtoint ptr %5 to i64
  %7 = load i32, ptr %4, align 4
  %8 = sext i32 %7 to i64
  %9 = xor i64 %6, %8
  %10 = inttoptr i64 %9 to ptr
  ret ptr %10
}

; Function Attrs: nounwind uwtable
define internal i32 @If_ObjIsCi(ptr noundef %0) #0 {
  %2 = alloca ptr, align 8
  store ptr %0, ptr %2, align 8
  %3 = load ptr, ptr %2, align 8
  %4 = load i32, ptr %3, align 8
  %5 = and i32 %4, 15
  %6 = icmp eq i32 %5, 2
  %7 = zext i1 %6 to i32
  ret i32 %7
}

; Function Attrs: nounwind uwtable
define internal void @If_CutSetData(ptr noundef %0, ptr noundef %1) #0 {
  %3 = alloca ptr, align 8
  %4 = alloca ptr, align 8
  store ptr %0, ptr %3, align 8
  store ptr %1, ptr %4, align 8
  %5 = load ptr, ptr %4, align 8
  %6 = load ptr, ptr %3, align 8
  store ptr %5, ptr %6, align 8
  ret void
}

; Function Attrs: nounwind uwtable
define internal void @Vec_PtrPush(ptr noundef %0, ptr noundef %1) #0 {
  %3 = alloca ptr, align 8
  %4 = alloca ptr, align 8
  store ptr %0, ptr %3, align 8
  store ptr %1, ptr %4, align 8
  %5 = load ptr, ptr %3, align 8
  %6 = getelementptr inbounds %struct.Vec_Ptr_t_, ptr %5, i32 0, i32 1
  %7 = load i32, ptr %6, align 4
  %8 = load ptr, ptr %3, align 8
  %9 = getelementptr inbounds %struct.Vec_Ptr_t_, ptr %8, i32 0, i32 0
  %10 = load i32, ptr %9, align 8
  %11 = icmp eq i32 %7, %10
  br i1 %11, label %12, label %26

12:                                               ; preds = %2
  %13 = load ptr, ptr %3, align 8
  %14 = getelementptr inbounds %struct.Vec_Ptr_t_, ptr %13, i32 0, i32 0
  %15 = load i32, ptr %14, align 8
  %16 = icmp slt i32 %15, 16
  br i1 %16, label %17, label %19

17:                                               ; preds = %12
  %18 = load ptr, ptr %3, align 8
  call void @Vec_PtrGrow(ptr noundef %18, i32 noundef 16)
  br label %25

19:                                               ; preds = %12
  %20 = load ptr, ptr %3, align 8
  %21 = load ptr, ptr %3, align 8
  %22 = getelementptr inbounds %struct.Vec_Ptr_t_, ptr %21, i32 0, i32 0
  %23 = load i32, ptr %22, align 8
  %24 = mul nsw i32 2, %23
  call void @Vec_PtrGrow(ptr noundef %20, i32 noundef %24)
  br label %25

25:                                               ; preds = %19, %17
  br label %26

26:                                               ; preds = %25, %2
  %27 = load ptr, ptr %4, align 8
  %28 = load ptr, ptr %3, align 8
  %29 = getelementptr inbounds %struct.Vec_Ptr_t_, ptr %28, i32 0, i32 2
  %30 = load ptr, ptr %29, align 8
  %31 = load ptr, ptr %3, align 8
  %32 = getelementptr inbounds %struct.Vec_Ptr_t_, ptr %31, i32 0, i32 1
  %33 = load i32, ptr %32, align 4
  %34 = add nsw i32 %33, 1
  store i32 %34, ptr %32, align 4
  %35 = sext i32 %33 to i64
  %36 = getelementptr inbounds ptr, ptr %30, i64 %35
  store ptr %27, ptr %36, align 8
  ret void
}

; Function Attrs: nounwind uwtable
define internal ptr @If_CutData(ptr noundef %0) #0 {
  %2 = alloca ptr, align 8
  store ptr %0, ptr %2, align 8
  %3 = load ptr, ptr %2, align 8
  %4 = load ptr, ptr %3, align 8
  ret ptr %4
}

; Function Attrs: nounwind uwtable
define internal ptr @If_ObjCutBest(ptr noundef %0) #0 {
  %2 = alloca ptr, align 8
  store ptr %0, ptr %2, align 8
  %3 = load ptr, ptr %2, align 8
  %4 = getelementptr inbounds %struct.If_Obj_t_, ptr %3, i32 0, i32 14
  ret ptr %4
}

; Function Attrs: nounwind uwtable
define ptr @Nwk_NodeIfToHop2_rec(ptr noundef %0, ptr noundef %1, ptr noundef %2, ptr noundef %3) #0 {
  %5 = alloca ptr, align 8
  %6 = alloca ptr, align 8
  %7 = alloca ptr, align 8
  %8 = alloca ptr, align 8
  %9 = alloca ptr, align 8
  %10 = alloca ptr, align 8
  %11 = alloca ptr, align 8
  %12 = alloca ptr, align 8
  %13 = alloca ptr, align 8
  %14 = alloca ptr, align 8
  store ptr %0, ptr %6, align 8
  store ptr %1, ptr %7, align 8
  store ptr %2, ptr %8, align 8
  store ptr %3, ptr %9, align 8
  %15 = load ptr, ptr %8, align 8
  %16 = call ptr @If_ObjCutBest(ptr noundef %15)
  store ptr %16, ptr %10, align 8
  %17 = load ptr, ptr %10, align 8
  %18 = call ptr @If_CutData(ptr noundef %17)
  %19 = icmp ne ptr %18, null
  br i1 %19, label %20, label %23

20:                                               ; preds = %4
  %21 = load ptr, ptr %10, align 8
  %22 = call ptr @If_CutData(ptr noundef %21)
  store ptr %22, ptr %5, align 8
  br label %100

23:                                               ; preds = %4
  %24 = load ptr, ptr %9, align 8
  %25 = load ptr, ptr %10, align 8
  call void @Vec_PtrPush(ptr noundef %24, ptr noundef %25)
  %26 = load ptr, ptr %10, align 8
  %27 = inttoptr i64 1 to ptr
  call void @If_CutSetData(ptr noundef %26, ptr noundef %27)
  %28 = load ptr, ptr %8, align 8
  %29 = call i32 @If_ObjIsCi(ptr noundef %28)
  %30 = icmp ne i32 %29, 0
  br i1 %30, label %31, label %34

31:                                               ; preds = %23
  %32 = load ptr, ptr %10, align 8
  %33 = call ptr @If_CutData(ptr noundef %32)
  store ptr %33, ptr %5, align 8
  br label %100

34:                                               ; preds = %23
  %35 = load ptr, ptr %8, align 8
  store ptr %35, ptr %11, align 8
  br label %36

36:                                               ; preds = %93, %34
  %37 = load ptr, ptr %11, align 8
  %38 = icmp ne ptr %37, null
  br i1 %38, label %39, label %97

39:                                               ; preds = %36
  %40 = load ptr, ptr %6, align 8
  %41 = load ptr, ptr %7, align 8
  %42 = load ptr, ptr %11, align 8
  %43 = getelementptr inbounds %struct.If_Obj_t_, ptr %42, i32 0, i32 6
  %44 = load ptr, ptr %43, align 8
  %45 = load ptr, ptr %9, align 8
  %46 = call ptr @Nwk_NodeIfToHop2_rec(ptr noundef %40, ptr noundef %41, ptr noundef %44, ptr noundef %45)
  store ptr %46, ptr %13, align 8
  %47 = load ptr, ptr %13, align 8
  %48 = inttoptr i64 1 to ptr
  %49 = icmp eq ptr %47, %48
  br i1 %49, label %50, label %51

50:                                               ; preds = %39
  br label %93

51:                                               ; preds = %39
  %52 = load ptr, ptr %6, align 8
  %53 = load ptr, ptr %7, align 8
  %54 = load ptr, ptr %11, align 8
  %55 = getelementptr inbounds %struct.If_Obj_t_, ptr %54, i32 0, i32 7
  %56 = load ptr, ptr %55, align 8
  %57 = load ptr, ptr %9, align 8
  %58 = call ptr @Nwk_NodeIfToHop2_rec(ptr noundef %52, ptr noundef %53, ptr noundef %56, ptr noundef %57)
  store ptr %58, ptr %14, align 8
  %59 = load ptr, ptr %14, align 8
  %60 = inttoptr i64 1 to ptr
  %61 = icmp eq ptr %59, %60
  br i1 %61, label %62, label %63

62:                                               ; preds = %51
  br label %93

63:                                               ; preds = %51
  %64 = load ptr, ptr %6, align 8
  %65 = load ptr, ptr %13, align 8
  %66 = load ptr, ptr %11, align 8
  %67 = load i32, ptr %66, align 8
  %68 = lshr i32 %67, 4
  %69 = and i32 %68, 1
  %70 = call ptr @Hop_NotCond(ptr noundef %65, i32 noundef %69)
  %71 = load ptr, ptr %14, align 8
  %72 = load ptr, ptr %11, align 8
  %73 = load i32, ptr %72, align 8
  %74 = lshr i32 %73, 5
  %75 = and i32 %74, 1
  %76 = call ptr @Hop_NotCond(ptr noundef %71, i32 noundef %75)
  %77 = call ptr @Hop_And(ptr noundef %64, ptr noundef %70, ptr noundef %76)
  store ptr %77, ptr %12, align 8
  %78 = load ptr, ptr %11, align 8
  %79 = load i32, ptr %78, align 8
  %80 = lshr i32 %79, 6
  %81 = and i32 %80, 1
  %82 = load ptr, ptr %8, align 8
  %83 = load i32, ptr %82, align 8
  %84 = lshr i32 %83, 6
  %85 = and i32 %84, 1
  %86 = icmp ne i32 %81, %85
  br i1 %86, label %87, label %90

87:                                               ; preds = %63
  %88 = load ptr, ptr %12, align 8
  %89 = call ptr @Hop_Not(ptr noundef %88)
  store ptr %89, ptr %12, align 8
  br label %90

90:                                               ; preds = %87, %63
  %91 = load ptr, ptr %10, align 8
  %92 = load ptr, ptr %12, align 8
  call void @If_CutSetData(ptr noundef %91, ptr noundef %92)
  br label %97

93:                                               ; preds = %62, %50
  %94 = load ptr, ptr %11, align 8
  %95 = getelementptr inbounds %struct.If_Obj_t_, ptr %94, i32 0, i32 8
  %96 = load ptr, ptr %95, align 8
  store ptr %96, ptr %11, align 8
  br label %36, !llvm.loop !7

97:                                               ; preds = %90, %36
  %98 = load ptr, ptr %10, align 8
  %99 = call ptr @If_CutData(ptr noundef %98)
  store ptr %99, ptr %5, align 8
  br label %100

100:                                              ; preds = %97, %31, %20
  %101 = load ptr, ptr %5, align 8
  ret ptr %101
}