; Function Attrs: nounwind uwtable
define ptr @Nwk_NodeIfToHop2_rec(ptr noundef %0, ptr noundef %1, ptr noundef %2, ptr noundef %3) local_unnamed_addr #2 {
  %5 = getelementptr inbounds nuw i8, ptr %2, i64 80
  %.val = load ptr, ptr %5, align 8
  %.not = icmp eq ptr %.val, null
  br i1 %.not, label %6, label %.loopexit

6:                                                ; preds = %4
  %7 = getelementptr inbounds nuw i8, ptr %3, i64 4
  %8 = load i32, ptr %7, align 4
  %9 = load i32, ptr %3, align 8
  %10 = icmp eq i32 %8, %9
  br i1 %10, label %11, label %.Vec_PtrGrow.exit11_crit_edge.i

.Vec_PtrGrow.exit11_crit_edge.i:                  ; preds = %6
  %.phi.trans.insert.i = getelementptr inbounds nuw i8, ptr %3, i64 8
  %.pre.i = load ptr, ptr %.phi.trans.insert.i, align 8
  br label %Vec_PtrPush.exit

11:                                               ; preds = %6
  %12 = icmp slt i32 %8, 16
  br i1 %12, label %13, label %21

13:                                               ; preds = %11
  %14 = getelementptr inbounds nuw i8, ptr %3, i64 8
  %15 = load ptr, ptr %14, align 8
  %.not9.i.i = icmp eq ptr %15, null
  br i1 %.not9.i.i, label %18, label %16

16:                                               ; preds = %13
  %17 = tail call dereferenceable_or_null(128) ptr @realloc(ptr noundef nonnull %15, i64 noundef 128) #18
  br label %Vec_PtrGrow.exit.i

18:                                               ; preds = %13
  %19 = tail call noalias dereferenceable_or_null(128) ptr @malloc(i64 noundef 128) #16
  br label %Vec_PtrGrow.exit.i

Vec_PtrGrow.exit.i:                               ; preds = %18, %16
  %20 = phi ptr [ %17, %16 ], [ %19, %18 ]
  store ptr %20, ptr %14, align 8
  store i32 16, ptr %3, align 8
  br label %Vec_PtrPush.exit

21:                                               ; preds = %11
  %22 = shl nuw nsw i32 %8, 1
  %23 = getelementptr inbounds nuw i8, ptr %3, i64 8
  %24 = load ptr, ptr %23, align 8
  %.not9.i10.i = icmp eq ptr %24, null
  %25 = zext nneg i32 %22 to i64
  %26 = shl nuw nsw i64 %25, 3
  br i1 %.not9.i10.i, label %29, label %27

27:                                               ; preds = %21
  %28 = tail call ptr @realloc(ptr noundef nonnull %24, i64 noundef %26) #18
  br label %31

29:                                               ; preds = %21
  %30 = tail call noalias ptr @malloc(i64 noundef %26) #16
  br label %31

31:                                               ; preds = %29, %27
  %32 = phi ptr [ %28, %27 ], [ %30, %29 ]
  store ptr %32, ptr %23, align 8
  store i32 %22, ptr %3, align 8
  br label %Vec_PtrPush.exit

Vec_PtrPush.exit:                                 ; preds = %.Vec_PtrGrow.exit11_crit_edge.i, %Vec_PtrGrow.exit.i, %31
  %33 = phi ptr [ %.pre.i, %.Vec_PtrGrow.exit11_crit_edge.i ], [ %32, %31 ], [ %20, %Vec_PtrGrow.exit.i ]
  %34 = load i32, ptr %7, align 4
  %35 = add nsw i32 %34, 1
  store i32 %35, ptr %7, align 4
  %36 = sext i32 %34 to i64
  %37 = getelementptr inbounds ptr, ptr %33, i64 %36
  store ptr %5, ptr %37, align 8
  store ptr inttoptr (i64 1 to ptr), ptr %5, align 8
  %.val43 = load i32, ptr %2, align 8
  %38 = and i32 %.val43, 15
  %.not44 = icmp eq i32 %38, 2
  br i1 %.not44, label %.loopexit, label %.preheader

.preheader:                                       ; preds = %Vec_PtrPush.exit, %70
  %.03347 = phi ptr [ %72, %70 ], [ %2, %Vec_PtrPush.exit ]
  %39 = getelementptr inbounds nuw i8, ptr %.03347, i64 24
  %40 = load ptr, ptr %39, align 8
  %41 = tail call ptr @Nwk_NodeIfToHop2_rec(ptr noundef %0, ptr noundef %1, ptr noundef %40, ptr noundef nonnull %3)
  %42 = icmp eq ptr %41, inttoptr (i64 1 to ptr)
  br i1 %42, label %70, label %43

43:                                               ; preds = %.preheader
  %44 = getelementptr inbounds nuw i8, ptr %.03347, i64 32
  %45 = load ptr, ptr %44, align 8
  %46 = tail call ptr @Nwk_NodeIfToHop2_rec(ptr noundef %0, ptr noundef %1, ptr noundef %45, ptr noundef nonnull %3)
  %47 = icmp eq ptr %46, inttoptr (i64 1 to ptr)
  br i1 %47, label %70, label %48

48:                                               ; preds = %43
  %49 = load i32, ptr %.03347, align 8
  %50 = lshr i32 %49, 4
  %51 = and i32 %50, 1
  %52 = ptrtoint ptr %41 to i64
  %53 = zext nneg i32 %51 to i64
  %54 = xor i64 %53, %52
  %55 = inttoptr i64 %54 to ptr
  %56 = lshr i32 %49, 5
  %57 = and i32 %56, 1
  %58 = ptrtoint ptr %46 to i64
  %59 = zext nneg i32 %57 to i64
  %60 = xor i64 %59, %58
  %61 = inttoptr i64 %60 to ptr
  %62 = tail call ptr @Hop_And(ptr noundef %0, ptr noundef %55, ptr noundef %61) #15
  %63 = load i32, ptr %.03347, align 8
  %64 = load i32, ptr %2, align 8
  %65 = xor i32 %64, %63
  %66 = and i32 %65, 64
  %.not39 = icmp eq i32 %66, 0
  %67 = ptrtoint ptr %62 to i64
  %68 = xor i64 %67, 1
  %69 = inttoptr i64 %68 to ptr
  %.034 = select i1 %.not39, ptr %62, ptr %69
  store ptr %.034, ptr %5, align 8
  br label %.loopexit

70:                                               ; preds = %43, %.preheader
  %71 = getelementptr inbounds nuw i8, ptr %.03347, i64 40
  %72 = load ptr, ptr %71, align 8
  %.not38 = icmp eq ptr %72, null
  br i1 %.not38, label %.loopexit.loopexit, label %.preheader, !llvm.loop !7

.loopexit.loopexit:                               ; preds = %70
  %.val42.pre = load ptr, ptr %5, align 8
  br label %.loopexit

.loopexit:                                        ; preds = %48, %.loopexit.loopexit, %Vec_PtrPush.exit, %4
  %.0 = phi ptr [ %.val, %4 ], [ inttoptr (i64 1 to ptr), %Vec_PtrPush.exit ], [ %.val42.pre, %.loopexit.loopexit ], [ %.034, %48 ]
  ret ptr %.0
}